target datalayout = "e-m:e-p270:32:32-p271:32:32-p272:64:64-i64:64-i128:128-f80:128-n8:16:32:64-S128"
target triple = "x86_64-unknown-linux-gnu"

%struct.btDbvt = type { ptr, ptr, i32, i32, i32, [4 x i8], %class.btAlignedObjectArray }
%class.btAlignedObjectArray = type <{ %class.btAlignedAllocator, [3 x i8], i32, i32, [4 x i8], ptr, i8, [7 x i8] }>
%class.btAlignedAllocator = type { i8 }

; Function Attrs: mustprogress uwtable
define internal void @_ZL10deletenodeP6btDbvtP10btDbvtNode(ptr noundef %pdbvt, ptr noundef %node) #2 {
entry:
  %pdbvt.addr = alloca ptr, align 8
  %node.addr = alloca ptr, align 8
  store ptr %pdbvt, ptr %pdbvt.addr, align 8
  store ptr %node, ptr %node.addr, align 8
  %0 = load ptr, ptr %pdbvt.addr, align 8
  %m_free = getelementptr inbounds %struct.btDbvt, ptr %0, i32 0, i32 1
  %1 = load ptr, ptr %m_free, align 8
  call void @_Z21btAlignedFreeInternalPv(ptr noundef %1)
  %2 = load ptr, ptr %node.addr, align 8
  %3 = load ptr, ptr %pdbvt.addr, align 8
  %m_free1 = getelementptr inbounds %struct.btDbvt, ptr %3, i32 0, i32 1
  store ptr %2, ptr %m_free1, align 8
  ret void
}

; Function Attrs: mustprogress uwtable
define dso_local void @_ZN6btDbvt6removeEP10btDbvtNode(ptr noundef nonnull align 8 dereferenceable(64) %this, ptr noundef %leaf) #2 align 2 {
entry:
  %this.addr = alloca ptr, align 8
  %leaf.addr = alloca ptr, align 8
  store ptr %this, ptr %this.addr, align 8
  store ptr %leaf, ptr %leaf.addr, align 8
  %this1 = load ptr, ptr %this.addr, align 8
  %0 = load ptr, ptr %leaf.addr, align 8
  %call = call noundef ptr @_ZL10removeleafP6btDbvtP10btDbvtNode(ptr noundef %this1, ptr noundef %0)
  %1 = load ptr, ptr %leaf.addr, align 8
  call void @_ZL10deletenodeP6btDbvtP10btDbvtNode(ptr noundef %this1, ptr noundef %1)
  %m_leaves = getelementptr inbounds %struct.btDbvt, ptr %this1, i32 0, i32 3
  %2 = load i32, ptr %m_leaves, align 4
  %dec = add nsw i32 %2, -1
  store i32 %dec, ptr %m_leaves, align 4
  ret void
}