; Function Attrs: mustprogress uwtable
define dso_local void @_ZN6btDbvt6removeEP10btDbvtNode(ptr nocapture noundef nonnull align 8 dereferenceable(64) %this, ptr noundef %leaf) local_unnamed_addr #2 align 2 {
entry:
  %call = tail call fastcc noundef ptr @_ZL10removeleafP6btDbvtP10btDbvtNode(ptr noundef nonnull %this, ptr noundef %leaf)
  %m_free.i = getelementptr inbounds i8, ptr %this, i64 8
  %0 = load ptr, ptr %m_free.i, align 8
  tail call void @_Z21btAlignedFreeInternalPv(ptr noundef %0)
  store ptr %leaf, ptr %m_free.i, align 8
  %m_leaves = getelementptr inbounds i8, ptr %this, i64 20
  %1 = load i32, ptr %m_leaves, align 4
  %dec = add nsw i32 %1, -1
  store i32 %dec, ptr %m_leaves, align 4
  ret void
}